target datalayout = "e-m:e-p270:32:32-p271:32:32-p272:64:64-i64:64-i128:128-f80:128-n8:16:32:64-S128"
target triple = "x86_64-pc-linux-gnu"

@_ZL16glbl_plist_model = internal global ptr null, align 8

; Function Attrs: mustprogress null_pointer_is_valid sspstrong uwtable
define i32 @packet_list_append(ptr noundef %0, ptr noundef %1) #0 {
  %3 = alloca i32, align 4
  %4 = alloca ptr, align 8
  %5 = alloca ptr, align 8
  store ptr %0, ptr %4, align 8
  store ptr %1, ptr %5, align 8
  %6 = load ptr, ptr @_ZL16glbl_plist_model, align 8
  %7 = icmp ne ptr %6, null
  br i1 %7, label %9, label %8

8:                                                ; preds = %2
  store i32 0, ptr %3, align 4
  br label %13

9:                                                ; preds = %2
  %10 = load ptr, ptr @_ZL16glbl_plist_model, align 8
  %11 = load ptr, ptr %5, align 8
  %12 = call noundef i32 @_ZN15PacketListModel12appendPacketEP11_frame_data(ptr noundef align 8 dereferenceable_or_null(156) %10, ptr noundef %11)
  store i32 %12, ptr %3, align 4
  br label %13

13:                                               ; preds = %9, %8
  %14 = load i32, ptr %3, align 4
  ret i32 %14
}