; Function Attrs: mustprogress null_pointer_is_valid sspstrong uwtable
define noundef i32 @packet_list_append(ptr noundef readnone captures(none) %0, ptr noundef %1) local_unnamed_addr #0 {
  %3 = load ptr, ptr @_ZL16glbl_plist_model, align 8
  %.not = icmp eq ptr %3, null
  br i1 %.not, label %6, label %4

4:                                                ; preds = %2
  %5 = tail call noundef i32 @_ZN15PacketListModel12appendPacketEP11_frame_data(ptr noundef nonnull align 8 dereferenceable_or_null(156) %3, ptr noundef %1)
  br label %6

6:                                                ; preds = %2, %4
  %.0 = phi i32 [ %5, %4 ], [ 0, %2 ]
  ret i32 %.0
}